target datalayout = "e-m:e-p270:32:32-p271:32:32-p272:64:64-i64:64-i128:128-f80:128-n8:16:32:64-S128"
target triple = "x86_64-pc-linux-gnu"

%struct.avifScalingMode = type { %struct.avifFraction, %struct.avifFraction }
%struct.avifFraction = type { i32, i32 }
%struct.avifEncoder = type { i32, i32, i32, i32, i64, i32, i32, i32, i32, i32, i32, i32, i32, i32, i32, i32, %struct.avifScalingMode, %struct.avifIOStats, %struct.avifDiagnostics, ptr, ptr, i32 }
%struct.avifIOStats = type { i64, i64 }
%struct.avifDiagnostics = type { [256 x i8] }
%struct.avifEncoderData = type { %struct.avifEncoderItemArray, %struct.avifEncoderFrameArray, i32, i32, i32, i32, %struct.avifEncoder, i32, i32, i32, i32, ptr, i16, i16, %struct.avifEncoderItemIdArray, i32, i32, i64, ptr, ptr }
%struct.avifEncoderItemArray = type { ptr, i32, i32, i32 }
%struct.avifEncoderFrameArray = type { ptr, i32, i32, i32 }
%struct.avifEncoderItemIdArray = type { ptr, i32, i32, i32 }
%struct.avifCodecSpecificOptions = type { ptr, i32, i32, i32 }

; Function Attrs: nounwind uwtable
define internal i32 @avifEncoderDetectChanges(ptr noundef %0, ptr noundef %1) #0 {
  %3 = alloca i32, align 4
  %4 = alloca ptr, align 8
  %5 = alloca ptr, align 8
  %6 = alloca ptr, align 8
  store ptr %0, ptr %4, align 8
  store ptr %1, ptr %5, align 8
  %7 = load ptr, ptr %4, align 8
  %8 = getelementptr inbounds nuw %struct.avifEncoder, ptr %7, i32 0, i32 19
  %9 = load ptr, ptr %8, align 8
  %10 = getelementptr inbounds nuw %struct.avifEncoderData, ptr %9, i32 0, i32 6
  store ptr %10, ptr %6, align 8
  %11 = load ptr, ptr %5, align 8
  store i32 0, ptr %11, align 4
  %12 = load ptr, ptr %6, align 8
  %13 = getelementptr inbounds nuw %struct.avifEncoder, ptr %12, i32 0, i32 19
  %14 = load ptr, ptr %13, align 8
  %15 = icmp ne ptr %14, null
  br i1 %15, label %17, label %16

16:                                               ; preds = %2
  store i32 1, ptr %3, align 4
  br label %209

17:                                               ; preds = %2
  %18 = load ptr, ptr %6, align 8
  %19 = getelementptr inbounds nuw %struct.avifEncoder, ptr %18, i32 0, i32 0
  %20 = load i32, ptr %19, align 8
  %21 = load ptr, ptr %4, align 8
  %22 = getelementptr inbounds nuw %struct.avifEncoder, ptr %21, i32 0, i32 0
  %23 = load i32, ptr %22, align 8
  %24 = icmp ne i32 %20, %23
  br i1 %24, label %73, label %25

25:                                               ; preds = %17
  %26 = load ptr, ptr %6, align 8
  %27 = getelementptr inbounds nuw %struct.avifEncoder, ptr %26, i32 0, i32 1
  %28 = load i32, ptr %27, align 4
  %29 = load ptr, ptr %4, align 8
  %30 = getelementptr inbounds nuw %struct.avifEncoder, ptr %29, i32 0, i32 1
  %31 = load i32, ptr %30, align 4
  %32 = icmp ne i32 %28, %31
  br i1 %32, label %73, label %33

33:                                               ; preds = %25
  %34 = load ptr, ptr %6, align 8
  %35 = getelementptr inbounds nuw %struct.avifEncoder, ptr %34, i32 0, i32 2
  %36 = load i32, ptr %35, align 8
  %37 = load ptr, ptr %4, align 8
  %38 = getelementptr inbounds nuw %struct.avifEncoder, ptr %37, i32 0, i32 2
  %39 = load i32, ptr %38, align 8
  %40 = icmp ne i32 %36, %39
  br i1 %40, label %73, label %41

41:                                               ; preds = %33
  %42 = load ptr, ptr %6, align 8
  %43 = getelementptr inbounds nuw %struct.avifEncoder, ptr %42, i32 0, i32 3
  %44 = load i32, ptr %43, align 4
  %45 = load ptr, ptr %4, align 8
  %46 = getelementptr inbounds nuw %struct.avifEncoder, ptr %45, i32 0, i32 3
  %47 = load i32, ptr %46, align 4
  %48 = icmp ne i32 %44, %47
  br i1 %48, label %73, label %49

49:                                               ; preds = %41
  %50 = load ptr, ptr %6, align 8
  %51 = getelementptr inbounds nuw %struct.avifEncoder, ptr %50, i32 0, i32 4
  %52 = load i64, ptr %51, align 8
  %53 = load ptr, ptr %4, align 8
  %54 = getelementptr inbounds nuw %struct.avifEncoder, ptr %53, i32 0, i32 4
  %55 = load i64, ptr %54, align 8
  %56 = icmp ne i64 %52, %55
  br i1 %56, label %73, label %57

57:                                               ; preds = %49
  %58 = load ptr, ptr %6, align 8
  %59 = getelementptr inbounds nuw %struct.avifEncoder, ptr %58, i32 0, i32 5
  %60 = load i32, ptr %59, align 8
  %61 = load ptr, ptr %4, align 8
  %62 = getelementptr inbounds nuw %struct.avifEncoder, ptr %61, i32 0, i32 5
  %63 = load i32, ptr %62, align 8
  %64 = icmp ne i32 %60, %63
  br i1 %64, label %73, label %65

65:                                               ; preds = %57
  %66 = load ptr, ptr %6, align 8
  %67 = getelementptr inbounds nuw %struct.avifEncoder, ptr %66, i32 0, i32 6
  %68 = load i32, ptr %67, align 4
  %69 = load ptr, ptr %4, align 8
  %70 = getelementptr inbounds nuw %struct.avifEncoder, ptr %69, i32 0, i32 6
  %71 = load i32, ptr %70, align 4
  %72 = icmp ne i32 %68, %71
  br i1 %72, label %73, label %74

73:                                               ; preds = %65, %57, %49, %41, %33, %25, %17
  store i32 0, ptr %3, align 4
  br label %209

74:                                               ; preds = %65
  %75 = load ptr, ptr %4, align 8
  %76 = getelementptr inbounds nuw %struct.avifEncoder, ptr %75, i32 0, i32 19
  %77 = load ptr, ptr %76, align 8
  %78 = getelementptr inbounds nuw %struct.avifEncoderData, ptr %77, i32 0, i32 7
  %79 = load i32, ptr %78, align 8
  %80 = load ptr, ptr %4, align 8
  %81 = getelementptr inbounds nuw %struct.avifEncoder, ptr %80, i32 0, i32 19
  %82 = load ptr, ptr %81, align 8
  %83 = getelementptr inbounds nuw %struct.avifEncoderData, ptr %82, i32 0, i32 2
  %84 = load i32, ptr %83, align 8
  %85 = icmp ne i32 %79, %84
  br i1 %85, label %86, label %90

86:                                               ; preds = %74
  %87 = load ptr, ptr %5, align 8
  %88 = load i32, ptr %87, align 4
  %89 = or i32 %88, 64
  store i32 %89, ptr %87, align 4
  br label %90

90:                                               ; preds = %86, %74
  %91 = load ptr, ptr %4, align 8
  %92 = getelementptr inbounds nuw %struct.avifEncoder, ptr %91, i32 0, i32 19
  %93 = load ptr, ptr %92, align 8
  %94 = getelementptr inbounds nuw %struct.avifEncoderData, ptr %93, i32 0, i32 8
  %95 = load i32, ptr %94, align 4
  %96 = load ptr, ptr %4, align 8
  %97 = getelementptr inbounds nuw %struct.avifEncoder, ptr %96, i32 0, i32 19
  %98 = load ptr, ptr %97, align 8
  %99 = getelementptr inbounds nuw %struct.avifEncoderData, ptr %98, i32 0, i32 3
  %100 = load i32, ptr %99, align 4
  %101 = icmp ne i32 %95, %100
  br i1 %101, label %102, label %106

102:                                              ; preds = %90
  %103 = load ptr, ptr %5, align 8
  %104 = load i32, ptr %103, align 4
  %105 = or i32 %104, 128
  store i32 %105, ptr %103, align 4
  br label %106

106:                                              ; preds = %102, %90
  %107 = load ptr, ptr %6, align 8
  %108 = getelementptr inbounds nuw %struct.avifEncoder, ptr %107, i32 0, i32 9
  %109 = load i32, ptr %108, align 8
  %110 = load ptr, ptr %4, align 8
  %111 = getelementptr inbounds nuw %struct.avifEncoder, ptr %110, i32 0, i32 9
  %112 = load i32, ptr %111, align 8
  %113 = icmp ne i32 %109, %112
  br i1 %113, label %114, label %118

114:                                              ; preds = %106
  %115 = load ptr, ptr %5, align 8
  %116 = load i32, ptr %115, align 4
  %117 = or i32 %116, 1
  store i32 %117, ptr %115, align 4
  br label %118

118:                                              ; preds = %114, %106
  %119 = load ptr, ptr %6, align 8
  %120 = getelementptr inbounds nuw %struct.avifEncoder, ptr %119, i32 0, i32 10
  %121 = load i32, ptr %120, align 4
  %122 = load ptr, ptr %4, align 8
  %123 = getelementptr inbounds nuw %struct.avifEncoder, ptr %122, i32 0, i32 10
  %124 = load i32, ptr %123, align 4
  %125 = icmp ne i32 %121, %124
  br i1 %125, label %126, label %130

126:                                              ; preds = %118
  %127 = load ptr, ptr %5, align 8
  %128 = load i32, ptr %127, align 4
  %129 = or i32 %128, 2
  store i32 %129, ptr %127, align 4
  br label %130

130:                                              ; preds = %126, %118
  %131 = load ptr, ptr %6, align 8
  %132 = getelementptr inbounds nuw %struct.avifEncoder, ptr %131, i32 0, i32 11
  %133 = load i32, ptr %132, align 8
  %134 = load ptr, ptr %4, align 8
  %135 = getelementptr inbounds nuw %struct.avifEncoder, ptr %134, i32 0, i32 11
  %136 = load i32, ptr %135, align 8
  %137 = icmp ne i32 %133, %136
  br i1 %137, label %138, label %142

138:                                              ; preds = %130
  %139 = load ptr, ptr %5, align 8
  %140 = load i32, ptr %139, align 4
  %141 = or i32 %140, 4
  store i32 %141, ptr %139, align 4
  br label %142

142:                                              ; preds = %138, %130
  %143 = load ptr, ptr %6, align 8
  %144 = getelementptr inbounds nuw %struct.avifEncoder, ptr %143, i32 0, i32 12
  %145 = load i32, ptr %144, align 4
  %146 = load ptr, ptr %4, align 8
  %147 = getelementptr inbounds nuw %struct.avifEncoder, ptr %146, i32 0, i32 12
  %148 = load i32, ptr %147, align 4
  %149 = icmp ne i32 %145, %148
  br i1 %149, label %150, label %154

150:                                              ; preds = %142
  %151 = load ptr, ptr %5, align 8
  %152 = load i32, ptr %151, align 4
  %153 = or i32 %152, 8
  store i32 %153, ptr %151, align 4
  br label %154

154:                                              ; preds = %150, %142
  %155 = load ptr, ptr %4, align 8
  %156 = getelementptr inbounds nuw %struct.avifEncoder, ptr %155, i32 0, i32 19
  %157 = load ptr, ptr %156, align 8
  %158 = getelementptr inbounds nuw %struct.avifEncoderData, ptr %157, i32 0, i32 9
  %159 = load i32, ptr %158, align 8
  %160 = load ptr, ptr %4, align 8
  %161 = getelementptr inbounds nuw %struct.avifEncoder, ptr %160, i32 0, i32 19
  %162 = load ptr, ptr %161, align 8
  %163 = getelementptr inbounds nuw %struct.avifEncoderData, ptr %162, i32 0, i32 4
  %164 = load i32, ptr %163, align 8
  %165 = icmp ne i32 %159, %164
  br i1 %165, label %166, label %170

166:                                              ; preds = %154
  %167 = load ptr, ptr %5, align 8
  %168 = load i32, ptr %167, align 4
  %169 = or i32 %168, 16
  store i32 %169, ptr %167, align 4
  br label %170

170:                                              ; preds = %166, %154
  %171 = load ptr, ptr %4, align 8
  %172 = getelementptr inbounds nuw %struct.avifEncoder, ptr %171, i32 0, i32 19
  %173 = load ptr, ptr %172, align 8
  %174 = getelementptr inbounds nuw %struct.avifEncoderData, ptr %173, i32 0, i32 10
  %175 = load i32, ptr %174, align 4
  %176 = load ptr, ptr %4, align 8
  %177 = getelementptr inbounds nuw %struct.avifEncoder, ptr %176, i32 0, i32 19
  %178 = load ptr, ptr %177, align 8
  %179 = getelementptr inbounds nuw %struct.avifEncoderData, ptr %178, i32 0, i32 5
  %180 = load i32, ptr %179, align 4
  %181 = icmp ne i32 %175, %180
  br i1 %181, label %182, label %186

182:                                              ; preds = %170
  %183 = load ptr, ptr %5, align 8
  %184 = load i32, ptr %183, align 4
  %185 = or i32 %184, 32
  store i32 %185, ptr %183, align 4
  br label %186

186:                                              ; preds = %182, %170
  %187 = load ptr, ptr %6, align 8
  %188 = getelementptr inbounds nuw %struct.avifEncoder, ptr %187, i32 0, i32 16
  %189 = load ptr, ptr %4, align 8
  %190 = getelementptr inbounds nuw %struct.avifEncoder, ptr %189, i32 0, i32 16
  %191 = call i32 @memcmp(ptr noundef %188, ptr noundef %190, i64 noundef 16) #7
  %192 = icmp ne i32 %191, 0
  br i1 %192, label %193, label %197

193:                                              ; preds = %186
  %194 = load ptr, ptr %5, align 8
  %195 = load i32, ptr %194, align 4
  %196 = or i32 %195, 256
  store i32 %196, ptr %194, align 4
  br label %197

197:                                              ; preds = %193, %186
  %198 = load ptr, ptr %4, align 8
  %199 = getelementptr inbounds nuw %struct.avifEncoder, ptr %198, i32 0, i32 20
  %200 = load ptr, ptr %199, align 8
  %201 = getelementptr inbounds nuw %struct.avifCodecSpecificOptions, ptr %200, i32 0, i32 2
  %202 = load i32, ptr %201, align 4
  %203 = icmp ugt i32 %202, 0
  br i1 %203, label %204, label %208

204:                                              ; preds = %197
  %205 = load ptr, ptr %5, align 8
  %206 = load i32, ptr %205, align 4
  %207 = or i32 %206, -2147483648
  store i32 %207, ptr %205, align 4
  br label %208

208:                                              ; preds = %204, %197
  store i32 1, ptr %3, align 4
  br label %209

209:                                              ; preds = %208, %73, %16
  %210 = load i32, ptr %3, align 4
  ret i32 %210
}