; Function Attrs: mustprogress nofree nounwind willreturn memory(read, argmem: readwrite, inaccessiblemem: none) uwtable
define internal fastcc range(i32 0, 2) i32 @avifEncoderDetectChanges(ptr nocapture noundef readonly %0, ptr nocapture noundef writeonly %1) unnamed_addr #6 {
  %3 = getelementptr inbounds nuw i8, ptr %0, i64 360
  %4 = load ptr, ptr %3, align 8
  store i32 0, ptr %1, align 4
  %5 = getelementptr inbounds i8, ptr %4, i64 424
  %6 = load ptr, ptr %5, align 8
  %.not = icmp eq ptr %6, null
  br i1 %.not, label %121, label %7

7:                                                ; preds = %2
  %8 = getelementptr inbounds nuw i8, ptr %4, i64 64
  %9 = load i32, ptr %8, align 8
  %10 = load i32, ptr %0, align 8
  %.not46 = icmp eq i32 %9, %10
  br i1 %.not46, label %11, label %121

11:                                               ; preds = %7
  %12 = getelementptr inbounds i8, ptr %4, i64 68
  %13 = load i32, ptr %12, align 4
  %14 = getelementptr inbounds nuw i8, ptr %0, i64 4
  %15 = load i32, ptr %14, align 4
  %.not47 = icmp eq i32 %13, %15
  br i1 %.not47, label %16, label %121

16:                                               ; preds = %11
  %17 = getelementptr inbounds i8, ptr %4, i64 72
  %18 = load i32, ptr %17, align 8
  %19 = getelementptr inbounds nuw i8, ptr %0, i64 8
  %20 = load i32, ptr %19, align 8
  %.not48 = icmp eq i32 %18, %20
  br i1 %.not48, label %21, label %121

21:                                               ; preds = %16
  %22 = getelementptr inbounds i8, ptr %4, i64 76
  %23 = load i32, ptr %22, align 4
  %24 = getelementptr inbounds nuw i8, ptr %0, i64 12
  %25 = load i32, ptr %24, align 4
  %.not49 = icmp eq i32 %23, %25
  br i1 %.not49, label %26, label %121

26:                                               ; preds = %21
  %27 = getelementptr inbounds i8, ptr %4, i64 80
  %28 = load i64, ptr %27, align 8
  %29 = getelementptr inbounds nuw i8, ptr %0, i64 16
  %30 = load i64, ptr %29, align 8
  %.not50 = icmp eq i64 %28, %30
  br i1 %.not50, label %31, label %121

31:                                               ; preds = %26
  %32 = getelementptr inbounds i8, ptr %4, i64 88
  %33 = load i32, ptr %32, align 8
  %34 = getelementptr inbounds nuw i8, ptr %0, i64 24
  %35 = load i32, ptr %34, align 8
  %.not51 = icmp eq i32 %33, %35
  br i1 %.not51, label %36, label %121

36:                                               ; preds = %31
  %37 = getelementptr inbounds i8, ptr %4, i64 92
  %38 = load i32, ptr %37, align 4
  %39 = getelementptr inbounds nuw i8, ptr %0, i64 28
  %40 = load i32, ptr %39, align 4
  %.not52 = icmp eq i32 %38, %40
  br i1 %.not52, label %41, label %121

41:                                               ; preds = %36
  %42 = load ptr, ptr %3, align 8
  %43 = getelementptr inbounds nuw i8, ptr %42, i64 448
  %44 = load i32, ptr %43, align 8
  %45 = getelementptr inbounds nuw i8, ptr %42, i64 48
  %46 = load i32, ptr %45, align 8
  %.not53 = icmp eq i32 %44, %46
  br i1 %.not53, label %48, label %47

47:                                               ; preds = %41
  store i32 64, ptr %1, align 4
  %.pre = load ptr, ptr %3, align 8
  br label %48

48:                                               ; preds = %47, %41
  %49 = phi i32 [ 64, %47 ], [ 0, %41 ]
  %50 = phi ptr [ %.pre, %47 ], [ %42, %41 ]
  %51 = getelementptr inbounds nuw i8, ptr %50, i64 452
  %52 = load i32, ptr %51, align 4
  %53 = getelementptr inbounds nuw i8, ptr %50, i64 52
  %54 = load i32, ptr %53, align 4
  %.not54 = icmp eq i32 %52, %54
  br i1 %.not54, label %57, label %55

55:                                               ; preds = %48
  %56 = or disjoint i32 %49, 128
  store i32 %56, ptr %1, align 4
  br label %57

57:                                               ; preds = %55, %48
  %58 = phi i32 [ %56, %55 ], [ %49, %48 ]
  %59 = getelementptr inbounds i8, ptr %4, i64 104
  %60 = load i32, ptr %59, align 8
  %61 = getelementptr inbounds nuw i8, ptr %0, i64 40
  %62 = load i32, ptr %61, align 8
  %.not55 = icmp eq i32 %60, %62
  br i1 %.not55, label %65, label %63

63:                                               ; preds = %57
  %64 = or i32 %58, 1
  store i32 %64, ptr %1, align 4
  br label %65

65:                                               ; preds = %63, %57
  %66 = phi i32 [ %64, %63 ], [ %58, %57 ]
  %67 = getelementptr inbounds i8, ptr %4, i64 108
  %68 = load i32, ptr %67, align 4
  %69 = getelementptr inbounds nuw i8, ptr %0, i64 44
  %70 = load i32, ptr %69, align 4
  %.not56 = icmp eq i32 %68, %70
  br i1 %.not56, label %73, label %71

71:                                               ; preds = %65
  %72 = or i32 %66, 2
  store i32 %72, ptr %1, align 4
  br label %73

73:                                               ; preds = %71, %65
  %74 = phi i32 [ %72, %71 ], [ %66, %65 ]
  %75 = getelementptr inbounds i8, ptr %4, i64 112
  %76 = load i32, ptr %75, align 8
  %77 = getelementptr inbounds nuw i8, ptr %0, i64 48
  %78 = load i32, ptr %77, align 8
  %.not57 = icmp eq i32 %76, %78
  br i1 %.not57, label %81, label %79

79:                                               ; preds = %73
  %80 = or i32 %74, 4
  store i32 %80, ptr %1, align 4
  br label %81

81:                                               ; preds = %79, %73
  %82 = phi i32 [ %80, %79 ], [ %74, %73 ]
  %83 = getelementptr inbounds i8, ptr %4, i64 116
  %84 = load i32, ptr %83, align 4
  %85 = getelementptr inbounds nuw i8, ptr %0, i64 52
  %86 = load i32, ptr %85, align 4
  %.not58 = icmp eq i32 %84, %86
  br i1 %.not58, label %89, label %87

87:                                               ; preds = %81
  %88 = or i32 %82, 8
  store i32 %88, ptr %1, align 4
  br label %89

89:                                               ; preds = %87, %81
  %90 = phi i32 [ %88, %87 ], [ %82, %81 ]
  %91 = load ptr, ptr %3, align 8
  %92 = getelementptr inbounds nuw i8, ptr %91, i64 456
  %93 = load i32, ptr %92, align 8
  %94 = getelementptr inbounds nuw i8, ptr %91, i64 56
  %95 = load i32, ptr %94, align 8
  %.not59 = icmp eq i32 %93, %95
  br i1 %.not59, label %98, label %96

96:                                               ; preds = %89
  %97 = or i32 %90, 16
  store i32 %97, ptr %1, align 4
  %.pre63 = load ptr, ptr %3, align 8
  br label %98

98:                                               ; preds = %96, %89
  %99 = phi i32 [ %97, %96 ], [ %90, %89 ]
  %100 = phi ptr [ %.pre63, %96 ], [ %91, %89 ]
  %101 = getelementptr inbounds nuw i8, ptr %100, i64 460
  %102 = load i32, ptr %101, align 4
  %103 = getelementptr inbounds nuw i8, ptr %100, i64 60
  %104 = load i32, ptr %103, align 4
  %.not60 = icmp eq i32 %102, %104
  br i1 %.not60, label %107, label %105

105:                                              ; preds = %98
  %106 = or i32 %99, 32
  store i32 %106, ptr %1, align 4
  br label %107

107:                                              ; preds = %105, %98
  %108 = phi i32 [ %106, %105 ], [ %99, %98 ]
  %109 = getelementptr inbounds i8, ptr %4, i64 132
  %110 = getelementptr inbounds nuw i8, ptr %0, i64 68
  %bcmp = tail call i32 @bcmp(ptr noundef nonnull dereferenceable(16) %109, ptr noundef nonnull dereferenceable(16) %110, i64 16)
  %.not61 = icmp eq i32 %bcmp, 0
  br i1 %.not61, label %113, label %111

111:                                              ; preds = %107
  %112 = or i32 %108, 256
  store i32 %112, ptr %1, align 4
  br label %113

113:                                              ; preds = %111, %107
  %114 = phi i32 [ %112, %111 ], [ %108, %107 ]
  %115 = getelementptr inbounds nuw i8, ptr %0, i64 368
  %116 = load ptr, ptr %115, align 8
  %117 = getelementptr inbounds nuw i8, ptr %116, i64 12
  %118 = load i32, ptr %117, align 4
  %.not62 = icmp eq i32 %118, 0
  br i1 %.not62, label %121, label %119

119:                                              ; preds = %113
  %120 = or i32 %114, -2147483648
  store i32 %120, ptr %1, align 4
  br label %121

121:                                              ; preds = %113, %119, %7, %11, %16, %21, %26, %31, %36, %2
  %.0 = phi i32 [ 1, %2 ], [ 0, %36 ], [ 0, %31 ], [ 0, %26 ], [ 0, %21 ], [ 0, %16 ], [ 0, %11 ], [ 0, %7 ], [ 1, %119 ], [ 1, %113 ]
  ret i32 %.0
}